; Function Attrs: nounwind uwtable
define range(i32 -1, 2) i32 @H5IMis_image(i64 noundef %0, ptr noundef %1) local_unnamed_addr #0 {
  %3 = icmp eq ptr %1, null
  br i1 %3, label %47, label %4

4:                                                ; preds = %2
  %5 = tail call i64 @H5Dopen2(i64 noundef %0, ptr noundef nonnull %1, i64 noundef 0) #8
  %6 = icmp slt i64 %5, 0
  br i1 %6, label %47, label %7

7:                                                ; preds = %4
  %8 = tail call i32 @H5Aexists(i64 noundef %5, ptr noundef nonnull @.str) #8
  %9 = icmp slt i32 %8, 0
  br i1 %9, label %45, label %10

10:                                               ; preds = %7
  %11 = icmp eq i32 %8, 0
  br i1 %11, label %12, label %14

12:                                               ; preds = %10
  %13 = tail call i32 @H5Dclose(i64 noundef %5) #8
  br label %47

14:                                               ; preds = %10
  %15 = tail call i64 @H5Aopen(i64 noundef %5, ptr noundef nonnull @.str, i64 noundef 0) #8
  %16 = icmp slt i64 %15, 0
  br i1 %16, label %45, label %17

17:                                               ; preds = %14
  %18 = tail call i64 @H5Aget_type(i64 noundef %15) #8
  %19 = icmp slt i64 %18, 0
  br i1 %19, label %45, label %20

20:                                               ; preds = %17
  %21 = tail call i32 @H5Tget_class(i64 noundef %18) #8
  %.not = icmp eq i32 %21, 3
  br i1 %.not, label %22, label %45

22:                                               ; preds = %20
  %23 = tail call i32 @H5Tget_strpad(i64 noundef %18) #8
  %.not34 = icmp eq i32 %23, 0
  br i1 %.not34, label %24, label %45

24:                                               ; preds = %22
  %25 = tail call i64 @H5Aget_storage_size(i64 noundef %15) #8
  %26 = icmp eq i64 %25, 0
  br i1 %26, label %45, label %27

27:                                               ; preds = %24
  %28 = add i64 %25, 1
  %29 = tail call noalias ptr @malloc(i64 noundef %28) #10
  %30 = icmp eq ptr %29, null
  br i1 %30, label %45, label %31

31:                                               ; preds = %27
  %32 = tail call i32 @H5Aread(i64 noundef %15, i64 noundef %18, ptr noundef nonnull %29) #8
  %33 = icmp slt i32 %32, 0
  br i1 %33, label %45, label %34

34:                                               ; preds = %31
  %35 = tail call i64 @strlen(ptr noundef nonnull dereferenceable(1) %29) #9
  %spec.select = tail call i64 @llvm.umin.i64(i64 %35, i64 5)
  %36 = tail call i32 @strncmp(ptr noundef nonnull %29, ptr noundef nonnull @.str.1, i64 noundef %spec.select) #9
  %37 = icmp eq i32 %36, 0
  %.0 = zext i1 %37 to i32
  tail call void @free(ptr noundef nonnull %29) #8
  %38 = tail call i32 @H5Tclose(i64 noundef %18) #8
  %39 = icmp slt i32 %38, 0
  br i1 %39, label %45, label %40

40:                                               ; preds = %34
  %41 = tail call i32 @H5Aclose(i64 noundef %15) #8
  %42 = icmp slt i32 %41, 0
  br i1 %42, label %45, label %43

43:                                               ; preds = %40
  %44 = tail call i32 @H5Dclose(i64 noundef %5) #8
  %.inv = icmp sgt i32 %44, -1
  %..0 = select i1 %.inv, i32 %.0, i32 -1
  br label %47

45:                                               ; preds = %40, %34, %31, %27, %24, %22, %20, %17, %14, %7
  %46 = tail call i32 @H5Dclose(i64 noundef %5) #8
  br label %47

47:                                               ; preds = %43, %4, %2, %45, %12
  %.025 = phi i32 [ -1, %45 ], [ 0, %12 ], [ -1, %2 ], [ -1, %4 ], [ %..0, %43 ]
  ret i32 %.025
}